(dp1
S'id_pago'
p2
(dp3
S'length'
p4
I512
sS'unique'
p5
I00
sS'sortable'
p6
I2
sS'sql'
p7
S'INTEGER REFERENCES pago (id_pago) ON DELETE CASCADE'
p8
sS'notnull'
p9
I00
sS'type'
p10
S'reference pago'
p11
ssS'id'
p12
(dp13
g4
I512
sg5
I00
sg6
I1
sg7
S'INTEGER PRIMARY KEY AUTOINCREMENT'
p14
sg9
I00
sg10
S'id'
p15
ssS'id_socio'
p16
(dp17
g4
I512
sg5
I00
sg6
I3
sg7
S'INTEGER REFERENCES socios (id_socio) ON DELETE CASCADE'
p18
sg9
I00
sg10
S'reference socios'
p19
ss.